(dp0
S'ShooHAY'
p1
S'Matt'
p2
sS'curt'
p3
S'Jesslynn'
p4
sS'Eli'
p5
S'Trista'
p6
sS'Carebear'
p7
S'Copes'
p8
sS'Key'
p9
S'Autumn'
p10
sS'Dom'
p11
S'Kevin'
p12
sS'Json'
p13
g1
sS'Juanito'
p14
S'Rob'
p15
s.