(dp0
S'ShooHAY'
p1
S'Json'
p2
sS'Matt'
p3
S'Eli'
p4
sS'Ben'
p5
S'Autumn'
p6
sS'Dom'
p7
S'Copes'
p8
sS'Jesslynn'
p9
S'curt'
p10
sS'Key'
p11
S'Carebear'
p12
sS'Kevin'
p13
S'Trista'
p14
sS'Juanito'
p15
S'Rob'
p16
s.(dp0
S'Matt'
p1
S'curt'
p2
sS'Ben'
p3
S'Key'
p4
sS'Carebear'
p5
S'Jesslynn'
p6
sS'Dom'
p7
S'Trista'
p8
sS'Json'
p9
S'ShooHAY'
p10
sS'Juanito'
p11
S'Autumn'
p12
sS'Kevin'
p13
S'Eli'
p14
sS'Copes'
p15
S'Rob'
p16
s.(dp0
S'ShooHAY'
p1
S'Json'
p2
sS'curt'
p3
S'Eli'
p4
sS'Ben'
p5
S'Carebear'
p6
sS'Dom'
p7
S'Jesslynn'
p8
sS'Rob'
p9
S'Matt'
p10
sS'Autumn'
p11
S'Trista'
p12
sS'Key'
p13
S'Copes'
p14
sS'Juanito'
p15
S'Kevin'
p16
s.(dp0
S'Matt'
p1
S'Ben'
p2
sS'Eli'
p3
S'curt'
p4
sS'Dom'
p5
S'Jesslynn'
p6
sS'Trista'
p7
S'Rob'
p8
sS'Json'
p9
S'Autumn'
p10
sS'Key'
p11
S'Carebear'
p12
sS'Juanito'
p13
S'ShooHAY'
p14
sS'Copes'
p15
S'Kevin'
p16
s.(dp0
S'ShooHAY'
p1
S'Juanito'
p2
sS'Matt'
p3
S'Trista'
p4
sS'Eli'
p5
S'Ben'
p6
sS'Dom'
p7
S'curt'
p8
sS'Rob'
p9
S'Autumn'
p10
sS'Jesslynn'
p11
S'Kevin'
p12
sS'Json'
p13
S'Copes'
p14
sS'Key'
p15
S'Carebear'
p16
s.(dp0
S'ShooHAY'
p1
S'Carebear'
p2
sS'Ben'
p3
S'Dom'
p4
sS'Rob'
p5
S'Jesslynn'
p6
sS'Autumn'
p7
S'Trista'
p8
sS'Json'
p9
S'curt'
p10
sS'Kevin'
p11
S'Juanito'
p12
sS'Copes'
p13
S'Key'
p14
s.(dp0
S'Matt'
p1
S'Copes'
p2
sS'Eli'
p3
S'Juanito'
p4
sS'Ben'
p5
S'Key'
p6
sS'Rob'
p7
S'Carebear'
p8
sS'Jesslynn'
p9
S'Dom'
p10
sS'curt'
p11
S'ShooHAY'
p12
sS'Autumn'
p13
S'Trista'
p14
sS'Kevin'
p15
S'Json'
p16
s.(dp0
S'Eli'
p1
S'Trista'
p2
sS'Ben'
p3
S'Matt'
p4
sS'Rob'
p5
S'Carebear'
p6
sS'Jesslynn'
p7
S'curt'
p8
sS'Autumn'
p9
S'Dom'
p10
sS'Json'
p11
S'Juanito'
p12
sS'Kevin'
p13
S'ShooHAY'
p14
sS'Copes'
p15
S'Key'
p16
s.(dp0
S'ShooHAY'
p1
S'Key'
p2
sS'Matt'
p3
S'curt'
p4
sS'Ben'
p5
S'Jesslynn'
p6
sS'Rob'
p7
S'Dom'
p8
sS'Json'
p9
S'Autumn'
p10
sS'Juanito'
p11
S'Trista'
p12
sS'Kevin'
p13
S'Carebear'
p14
sS'Copes'
p15
S'Eli'
p16
s.(dp0
S'Matt'
p1
S'Ben'
p2
sS'Carebear'
p3
S'Rob'
p4
sS'Dom'
p5
S'Key'
p6
sS'Trista'
p7
S'Jesslynn'
p8
sS'Autumn'
p9
S'curt'
p10
sS'Kevin'
p11
S'Eli'
p12
sS'Copes'
p13
S'Juanito'
p14
s.(dp0
S'ShooHAY'
p1
S'Matt'
p2
sS'curt'
p3
S'Rob'
p4
sS'Carebear'
p5
S'Eli'
p6
sS'Trista'
p7
S'Copes'
p8
sS'Jesslynn'
p9
S'Json'
p10
sS'Autumn'
p11
S'Juanito'
p12
sS'Key'
p13
S'Ben'
p14
sS'Kevin'
p15
S'Dom'
p16
s.(dp0
S'ShooHAY'
p1
S'Ben'
p2
sS'Eli'
p3
S'Dom'
p4
sS'Carebear'
p5
S'Matt'
p6
sS'Jesslynn'
p7
S'Trista'
p8
sS'Autumn'
p9
S'Copes'
p10
sS'Key'
p11
S'curt'
p12
sS'Kevin'
p13
S'Rob'
p14
sS'Juanito'
p15
S'Json'
p16
s.(dp0
S'Matt'
p1
S'ShooHAY'
p2
sS'Dom'
p3
S'Ben'
p4
sS'Rob'
p5
S'Trista'
p6
sS'Jesslynn'
p7
S'Key'
p8
sS'curt'
p9
S'Autumn'
p10
sS'Juanito'
p11
S'Carebear'
p12
sS'Kevin'
p13
S'Json'
p14
sS'Copes'
p15
S'Eli'
p16
s.(dp0
S'ShooHAY'
p1
S'Trista'
p2
sS'curt'
p3
S'Dom'
p4
sS'Ben'
p5
S'Kevin'
p6
sS'Jesslynn'
p7
S'Rob'
p8
sS'Matt'
p9
S'Carebear'
p10
sS'Autumn'
p11
S'Copes'
p12
sS'Json'
p13
S'Eli'
p14
sS'Juanito'
p15
S'Key'
p16
s.(dp0
S'Matt'
p1
S'Juanito'
p2
sS'Eli'
p3
S'Ben'
p4
sS'Carebear'
p5
S'Copes'
p6
sS'Jesslynn'
p7
S'Dom'
p8
sS'curt'
p9
S'Json'
p10
sS'Autumn'
p11
S'Rob'
p12
sS'Key'
p13
S'ShooHAY'
p14
s.(dp0
S'Matt'
p1
S'Eli'
p2
sS'Carebear'
p3
S'Dom'
p4
sS'Trista'
p5
S'Jesslynn'
p6
sS'curt'
p7
S'Copes'
p8
sS'Key'
p9
S'Ben'
p10
sS'Kevin'
p11
S'Rob'
p12
sS'Juanito'
p13
S'Autumn'
p14
s.(dp0
S'Matt'
p1
S'Kevin'
p2
sS'Eli'
p3
S'curt'
p4
sS'Ben'
p5
S'Copes'
p6
sS'Carebear'
p7
S'Json'
p8
sS'Dom'
p9
S'ShooHAY'
p10
sS'Jesslynn'
p11
S'Trista'
p12
sS'Key'
p13
S'Autumn'
p14
sS'Juanito'
p15
S'Rob'
p16
s.(dp0
S'Matt'
p1
S'Kevin'
p2
sS'Dom'
p3
S'Ben'
p4
sS'Trista'
p5
S'Key'
p6
sS'Jesslynn'
p7
S'Eli'
p8
sS'curt'
p9
S'ShooHAY'
p10
sS'Autumn'
p11
S'Carebear'
p12
sS'Json'
p13
S'Copes'
p14
s.(dp0
S'curt'
p1
S'Dom'
p2
sS'Eli'
p3
S'Trista'
p4
sS'Ben'
p5
S'Autumn'
p6
sS'Carebear'
p7
S'Juanito'
p8
sS'Rob'
p9
S'Jesslynn'
p10
sS'Matt'
p11
S'ShooHAY'
p12
sS'Kevin'
p13
S'Json'
p14
sS'Copes'
p15
S'Key'
p16
s.(dp0
S'ShooHAY'
p1
S'Key'
p2
sS'Ben'
p3
S'Eli'
p4
sS'Dom'
p5
S'Matt'
p6
sS'Rob'
p7
S'Carebear'
p8
sS'Autumn'
p9
S'curt'
p10
sS'Json'
p11
S'Jesslynn'
p12
sS'Copes'
p13
S'Trista'
p14
sS'Juanito'
p15
S'Kevin'
p16
s.(dp0
S'ShooHAY'
p1
S'Dom'
p2
sS'curt'
p3
S'Trista'
p4
sS'Eli'
p5
S'Juanito'
p6
sS'Jesslynn'
p7
S'Carebear'
p8
sS'Autumn'
p9
S'Rob'
p10
sS'Key'
p11
S'Json'
p12
sS'Kevin'
p13
S'Matt'
p14
sS'Copes'
p15
S'Ben'
p16
s.(dp0
S'ShooHAY'
p1
S'Juanito'
p2
sS'curt'
p3
S'Trista'
p4
sS'Eli'
p5
S'Autumn'
p6
sS'Dom'
p7
S'Carebear'
p8
sS'Rob'
p9
S'Copes'
p10
sS'Jesslynn'
p11
S'Ben'
p12
sS'Matt'
p13
S'Kevin'
p14
sS'Key'
p15
S'Json'
p16
s.(dp0
S'ShooHAY'
p1
S'Autumn'
p2
sS'Matt'
p3
S'Kevin'
p4
sS'Eli'
p5
S'Trista'
p6
sS'Dom'
p7
S'Json'
p8
sS'Rob'
p9
S'Carebear'
p10
sS'Jesslynn'
p11
S'curt'
p12
sS'Copes'
p13
S'Key'
p14
sS'Juanito'
p15
S'Ben'
p16
s.(dp0
S'ShooHAY'
p1
S'Autumn'
p2
sS'Eli'
p3
S'Json'
p4
sS'Ben'
p5
S'Key'
p6
sS'Dom'
p7
S'curt'
p8
sS'Trista'
p9
S'Carebear'
p10
sS'Kevin'
p11
S'Jesslynn'
p12
sS'Copes'
p13
S'Matt'
p14
s.(dp0
S'ShooHAY'
p1
S'Json'
p2
sS'Matt'
p3
S'Key'
p4
sS'Carebear'
p5
S'Copes'
p6
sS'Rob'
p7
S'Ben'
p8
sS'Jesslynn'
p9
S'Trista'
p10
sS'curt'
p11
S'Eli'
p12
sS'Kevin'
p13
S'Autumn'
p14
sS'Juanito'
p15
S'Dom'
p16
s.(dp0
S'Ben'
p1
S'Eli'
p2
sS'Carebear'
p3
S'Kevin'
p4
sS'Dom'
p5
S'Copes'
p6
sS'Trista'
p7
S'Jesslynn'
p8
sS'Rob'
p9
S'curt'
p10
sS'Autumn'
p11
S'Matt'
p12
sS'Key'
p13
S'Json'
p14
sS'Juanito'
p15
S'ShooHAY'
p16
s.(dp0
S'curt'
p1
S'Eli'
p2
sS'Ben'
p3
S'Trista'
p4
sS'Matt'
p5
S'ShooHAY'
p6
sS'Autumn'
p7
S'Copes'
p8
sS'Json'
p9
S'Carebear'
p10
sS'Key'
p11
S'Dom'
p12
sS'Kevin'
p13
S'Rob'
p14
sS'Juanito'
p15
S'Jesslynn'
p16
s.(dp0
S'Matt'
p1
S'Eli'
p2
sS'Ben'
p3
S'Copes'
p4
sS'Dom'
p5
S'curt'
p6
sS'Trista'
p7
S'Rob'
p8
sS'Autumn'
p9
S'ShooHAY'
p10
sS'Key'
p11
S'Json'
p12
sS'Kevin'
p13
S'Jesslynn'
p14
sS'Juanito'
p15
S'Carebear'
p16
s.(dp0
S'ShooHAY'
p1
S'Key'
p2
sS'Matt'
p3
S'curt'
p4
sS'Ben'
p5
S'Eli'
p6
sS'Carebear'
p7
S'Json'
p8
sS'Dom'
p9
S'Jesslynn'
p10
sS'Trista'
p11
S'Autumn'
p12
sS'Rob'
p13
S'Kevin'
p14
sS'Juanito'
p15
S'Copes'
p16
s.(dp0
S'ShooHAY'
p1
S'Trista'
p2
sS'curt'
p3
S'Juanito'
p4
sS'Eli'
p5
S'Key'
p6
sS'Carebear'
p7
S'Rob'
p8
sS'Dom'
p9
S'Copes'
p10
sS'Jesslynn'
p11
S'Autumn'
p12
sS'Matt'
p13
S'Kevin'
p14
sS'Json'
p15
S'Ben'
p16
s.(dp0
S'Matt'
p1
S'Juanito'
p2
sS'Dom'
p3
S'Trista'
p4
sS'Rob'
p5
S'Ben'
p6
sS'curt'
p7
S'ShooHAY'
p8
sS'Autumn'
p9
S'Eli'
p10
sS'Key'
p11
S'Jesslynn'
p12
sS'Kevin'
p13
S'Json'
p14
sS'Copes'
p15
S'Carebear'
p16
s.(dp0
S'curt'
p1
S'Autumn'
p2
sS'Carebear'
p3
S'Kevin'
p4
sS'Dom'
p5
S'Matt'
p6
sS'Trista'
p7
S'Ben'
p8
sS'Jesslynn'
p9
S'Json'
p10
sS'Key'
p11
S'ShooHAY'
p12
sS'Copes'
p13
S'Eli'
p14
sS'Juanito'
p15
S'Rob'
p16
s.(dp0
S'curt'
p1
S'ShooHAY'
p2
sS'Ben'
p3
S'Trista'
p4
sS'Carebear'
p5
S'Jesslynn'
p6
sS'Rob'
p7
S'Autumn'
p8
sS'Key'
p9
S'Eli'
p10
sS'Kevin'
p11
S'Matt'
p12
sS'Juanito'
p13
S'Json'
p14
s.(dp0
S'Matt'
p1
S'Rob'
p2
sS'Carebear'
p3
S'Kevin'
p4
sS'Trista'
p5
S'Ben'
p6
sS'Jesslynn'
p7
S'Dom'
p8
sS'Autumn'
p9
S'ShooHAY'
p10
sS'Json'
p11
S'curt'
p12
sS'Key'
p13
S'Juanito'
p14
sS'Copes'
p15
S'Eli'
p16
s.(dp0
S'ShooHAY'
p1
S'Rob'
p2
sS'curt'
p3
S'Autumn'
p4
sS'Ben'
p5
S'Juanito'
p6
sS'Carebear'
p7
S'Dom'
p8
sS'Trista'
p9
S'Key'
p10
sS'Matt'
p11
S'Json'
p12
sS'Kevin'
p13
S'Eli'
p14
sS'Copes'
p15
S'Jesslynn'
p16
s.(dp0
S'Matt'
p1
S'curt'
p2
sS'Dom'
p3
S'Ben'
p4
sS'Trista'
p5
S'Rob'
p6
sS'Jesslynn'
p7
S'ShooHAY'
p8
sS'Autumn'
p9
S'Eli'
p10
sS'Copes'
p11
S'Key'
p12
sS'Kevin'
p13
S'Carebear'
p14
sS'Juanito'
p15
S'Json'
p16
s.(dp0
S'ShooHAY'
p1
S'curt'
p2
sS'Ben'
p3
S'Json'
p4
sS'Dom'
p5
S'Matt'
p6
sS'Trista'
p7
S'Carebear'
p8
sS'Jesslynn'
p9
S'Rob'
p10
sS'Key'
p11
S'Autumn'
p12
sS'Kevin'
p13
S'Juanito'
p14
sS'Copes'
p15
S'Eli'
p16
s.(dp0
S'Matt'
p1
S'Eli'
p2
sS'Ben'
p3
S'Carebear'
p4
sS'Dom'
p5
S'Jesslynn'
p6
sS'Rob'
p7
S'ShooHAY'
p8
sS'curt'
p9
S'Trista'
p10
sS'Autumn'
p11
S'Key'
p12
sS'Kevin'
p13
S'Json'
p14
sS'Juanito'
p15
S'Copes'
p16
s.(dp0
S'Matt'
p1
S'Eli'
p2
sS'Ben'
p3
S'ShooHAY'
p4
sS'Carebear'
p5
S'Json'
p6
sS'Dom'
p7
S'Kevin'
p8
sS'Trista'
p9
S'Rob'
p10
sS'curt'
p11
S'Copes'
p12
sS'Autumn'
p13
S'Jesslynn'
p14
sS'Juanito'
p15
S'Key'
p16
s.